; Function Attrs: nounwind uwtable
define hidden i32 @luaK_codeABx(ptr noundef captures(none) %0, i32 noundef %1, i32 noundef %2, i32 noundef %3) local_unnamed_addr #0 {
  %5 = shl i32 %2, 6
  %6 = or i32 %5, %1
  %7 = shl i32 %3, 14
  %8 = or i32 %6, %7
  %9 = getelementptr inbounds nuw i8, ptr %0, i64 24
  %10 = load ptr, ptr %9, align 8, !tbaa !30
  %11 = getelementptr inbounds nuw i8, ptr %10, i64 8
  %12 = load i32, ptr %11, align 8, !tbaa !31
  %13 = tail call fastcc i32 @luaK_code(ptr noundef %0, i32 noundef %8, i32 noundef %12)
  ret i32 %13
}